target datalayout = "e-m:e-p270:32:32-p271:32:32-p272:64:64-i64:64-i128:128-f80:128-n8:16:32:64-S128"
target triple = "x86_64-pc-linux-gnu"

%"class.icu_77::MessagePattern" = type <{ %"class.icu_77::UObject", i32, [4 x i8], %"class.icu_77::UnicodeString", ptr, ptr, i32, [4 x i8], ptr, ptr, i32, i8, i8, i8, i8 }>
%"class.icu_77::UObject" = type { ptr }
%"class.icu_77::UnicodeString" = type { %"class.icu_77::Replaceable", %"union.icu_77::UnicodeString::StackBufferOrFields" }
%"class.icu_77::Replaceable" = type { %"class.icu_77::UObject" }
%"union.icu_77::UnicodeString::StackBufferOrFields" = type { %struct.anon.0, [32 x i8] }
%struct.anon.0 = type { i16, i32, i32, ptr }
%"class.icu_77::MessagePattern::Part" = type { i32, i32, i16, i16, i32 }

; Function Attrs: mustprogress nounwind uwtable
define noundef double @_ZNK6icu_7714MessagePattern15getNumericValueERKNS0_4PartE(ptr noundef nonnull align 8 dereferenceable(127) %0, ptr noundef nonnull align 4 dereferenceable(16) %1) #5 align 2 {
  %3 = alloca double, align 8
  %4 = alloca ptr, align 8
  %5 = alloca ptr, align 8
  %6 = alloca i32, align 4
  %7 = alloca i32, align 4
  store ptr %0, ptr %4, align 8, !tbaa !3
  store ptr %1, ptr %5, align 8, !tbaa !70
  %8 = load ptr, ptr %4, align 8
  call void @llvm.lifetime.start.p0(i64 4, ptr %6) #12
  %9 = load ptr, ptr %5, align 8, !tbaa !70
  %10 = getelementptr inbounds nuw %"class.icu_77::MessagePattern::Part", ptr %9, i32 0, i32 0
  %11 = load i32, ptr %10, align 4, !tbaa !71
  store i32 %11, ptr %6, align 4, !tbaa !80
  %12 = load i32, ptr %6, align 4, !tbaa !80
  %13 = icmp eq i32 %12, 12
  br i1 %13, label %14, label %19

14:                                               ; preds = %2
  %15 = load ptr, ptr %5, align 8, !tbaa !70
  %16 = getelementptr inbounds nuw %"class.icu_77::MessagePattern::Part", ptr %15, i32 0, i32 3
  %17 = load i16, ptr %16, align 2, !tbaa !77
  %18 = sitofp i16 %17 to double
  store double %18, ptr %3, align 8
  store i32 1, ptr %7, align 4
  br label %32

19:                                               ; preds = %2
  %20 = load i32, ptr %6, align 4, !tbaa !80
  %21 = icmp eq i32 %20, 13
  br i1 %21, label %22, label %31

22:                                               ; preds = %19
  %23 = getelementptr inbounds nuw %"class.icu_77::MessagePattern", ptr %8, i32 0, i32 9
  %24 = load ptr, ptr %23, align 8, !tbaa !26
  %25 = load ptr, ptr %5, align 8, !tbaa !70
  %26 = getelementptr inbounds nuw %"class.icu_77::MessagePattern::Part", ptr %25, i32 0, i32 3
  %27 = load i16, ptr %26, align 2, !tbaa !77
  %28 = sext i16 %27 to i64
  %29 = getelementptr inbounds double, ptr %24, i64 %28
  %30 = load double, ptr %29, align 8, !tbaa !81
  store double %30, ptr %3, align 8
  store i32 1, ptr %7, align 4
  br label %32

31:                                               ; preds = %19
  store double 0xC19D6F3454000000, ptr %3, align 8
  store i32 1, ptr %7, align 4
  br label %32

32:                                               ; preds = %31, %22, %14
  call void @llvm.lifetime.end.p0(i64 4, ptr %6) #12
  %33 = load double, ptr %3, align 8
  ret double %33
}

; Function Attrs: mustprogress nounwind uwtable
define linkonce_odr noundef signext i8 @_ZN6icu_7714MessagePattern4Part15hasNumericValueE23UMessagePatternPartType(i32 noundef %0) #5 comdat align 2 {
  %2 = alloca i32, align 4
  store i32 %0, ptr %2, align 4, !tbaa !80
  %3 = load i32, ptr %2, align 4, !tbaa !80
  %4 = icmp eq i32 %3, 12
  br i1 %4, label %8, label %5

5:                                                ; preds = %1
  %6 = load i32, ptr %2, align 4, !tbaa !80
  %7 = icmp eq i32 %6, 13
  br label %8

8:                                                ; preds = %5, %1
  %9 = phi i1 [ true, %1 ], [ %7, %5 ]
  %10 = zext i1 %9 to i8
  ret i8 %10
}

; Function Attrs: mustprogress nounwind uwtable
define linkonce_odr noundef nonnull align 4 dereferenceable(16) ptr @_ZNK6icu_7714MessagePattern7getPartEi(ptr noundef nonnull align 8 dereferenceable(127) %0, i32 noundef %1) #5 comdat align 2 {
  %3 = alloca ptr, align 8
  %4 = alloca i32, align 4
  store ptr %0, ptr %3, align 8, !tbaa !3
  store i32 %1, ptr %4, align 4, !tbaa !48
  %5 = load ptr, ptr %3, align 8
  %6 = getelementptr inbounds nuw %"class.icu_77::MessagePattern", ptr %5, i32 0, i32 5
  %7 = load ptr, ptr %6, align 8, !tbaa !23
  %8 = load i32, ptr %4, align 4, !tbaa !48
  %9 = sext i32 %8 to i64
  %10 = getelementptr inbounds %"class.icu_77::MessagePattern::Part", ptr %7, i64 %9
  ret ptr %10
}

; Function Attrs: mustprogress uwtable
define noundef double @_ZNK6icu_7714MessagePattern15getPluralOffsetEi(ptr noundef nonnull align 8 dereferenceable(127) %0, i32 noundef %1) #0 align 2 {
  %3 = alloca double, align 8
  %4 = alloca ptr, align 8
  %5 = alloca i32, align 4
  %6 = alloca ptr, align 8
  %7 = alloca i32, align 4
  store ptr %0, ptr %4, align 8, !tbaa !3
  store i32 %1, ptr %5, align 4, !tbaa !48
  %8 = load ptr, ptr %4, align 8
  call void @llvm.lifetime.start.p0(i64 8, ptr %6) #12
  %9 = load i32, ptr %5, align 4, !tbaa !48
  %10 = call noundef nonnull align 4 dereferenceable(16) ptr @_ZNK6icu_7714MessagePattern7getPartEi(ptr noundef nonnull align 8 dereferenceable(127) %8, i32 noundef %9)
  store ptr %10, ptr %6, align 8, !tbaa !70
  %11 = load ptr, ptr %6, align 8, !tbaa !70
  %12 = getelementptr inbounds nuw %"class.icu_77::MessagePattern::Part", ptr %11, i32 0, i32 0
  %13 = load i32, ptr %12, align 4, !tbaa !71
  %14 = call noundef signext i8 @_ZN6icu_7714MessagePattern4Part15hasNumericValueE23UMessagePatternPartType(i32 noundef %13)
  %15 = icmp ne i8 %14, 0
  br i1 %15, label %16, label %19

16:                                               ; preds = %2
  %17 = load ptr, ptr %6, align 8, !tbaa !70
  %18 = call noundef double @_ZNK6icu_7714MessagePattern15getNumericValueERKNS0_4PartE(ptr noundef nonnull align 8 dereferenceable(127) %8, ptr noundef nonnull align 4 dereferenceable(16) %17)
  store double %18, ptr %3, align 8
  store i32 1, ptr %7, align 4
  br label %20

19:                                               ; preds = %2
  store double 0.000000e+00, ptr %3, align 8
  store i32 1, ptr %7, align 4
  br label %20

20:                                               ; preds = %19, %16
  call void @llvm.lifetime.end.p0(i64 8, ptr %6) #12
  %21 = load double, ptr %3, align 8
  ret double %21
}