; Function Attrs: mustprogress nofree norecurse nosync nounwind willreturn memory(read, inaccessiblemem: none) uwtable
define noundef double @_ZNK6icu_7714MessagePattern15getPluralOffsetEi(ptr noundef nonnull readonly align 8 captures(none) dereferenceable(127) %0, i32 noundef %1) local_unnamed_addr #8 align 2 {
  %3 = getelementptr inbounds nuw i8, ptr %0, i64 88
  %4 = load ptr, ptr %3, align 8, !tbaa !26
  %5 = sext i32 %1 to i64
  %6 = getelementptr inbounds %"class.icu_77::MessagePattern::Part", ptr %4, i64 %5
  %7 = load i32, ptr %6, align 4, !tbaa !44
  %8 = and i32 %7, -2
  %.not = icmp eq i32 %8, 12
  br i1 %.not, label %9, label %_ZNK6icu_7714MessagePattern15getNumericValueERKNS0_4PartE.exit

9:                                                ; preds = %2
  %switch = icmp eq i32 %7, 12
  br i1 %switch, label %10, label %14

10:                                               ; preds = %9
  %11 = getelementptr inbounds nuw i8, ptr %6, i64 10
  %12 = load i16, ptr %11, align 2, !tbaa !50
  %13 = sitofp i16 %12 to double
  br label %_ZNK6icu_7714MessagePattern15getNumericValueERKNS0_4PartE.exit

14:                                               ; preds = %9
  %15 = getelementptr inbounds nuw i8, ptr %0, i64 112
  %16 = load ptr, ptr %15, align 8, !tbaa !36
  %17 = getelementptr inbounds nuw i8, ptr %6, i64 10
  %18 = load i16, ptr %17, align 2, !tbaa !50
  %19 = sext i16 %18 to i64
  %20 = getelementptr inbounds double, ptr %16, i64 %19
  %21 = load double, ptr %20, align 8, !tbaa !62
  br label %_ZNK6icu_7714MessagePattern15getNumericValueERKNS0_4PartE.exit

_ZNK6icu_7714MessagePattern15getNumericValueERKNS0_4PartE.exit: ; preds = %14, %10, %2
  %.0 = phi double [ 0.000000e+00, %2 ], [ %13, %10 ], [ %21, %14 ]
  ret double %.0
}